(dp1
S'doc:docs/examples/example.py|idio|pycon|pyg'
p2
V[["environment", {}]]
p3
sS'pattern:docs/examples/*.py|idio|pycon|pyg'
p4
V[["environment", {}]]
p5
sS'doc:docs/index.md|jinja|markdown|easyhtml'
p6
V[["environment", {}]]
p7
sS'pattern:docs/*.md|jinja|markdown|easyhtml'
p8
V[["environment", {}]]
p9
s.