(dp1
S'docs'
p2
(dp3
S'doc:docs/docs.md|jinja'
p4
(dp5
S'filters-data'
p6
(lp7
(S'generic'
p8
S'docs/docs.md|jinja'
p9
S'.md'
p10
S'78ddcc1a57f9eec0a40ee4fc4c12fe01-001-jinja'
p11
(dp12
S'help'
p13
S'Data type representing generic binary or text-based data in a single blob.'
p14
sS'title'
p15
NsS'storage-type'
p16
g8
sS'shortcut'
p17
NsS'canonical-name'
p18
S'docs/docs.md'
p19
sS'canonical-output'
p20
I01
sS'output-name'
p21
NsS'aliases'
p22
(lp23
g8
astp24
asS'output-data'
p25
(g8
g9
g10
g11
(dp26
g13
g14
sg15
Nsg16
g8
sg17
Nsg18
g19
sg20
I01
sg21
Nsg22
g23
stp27
sg15
S'Docs'
p28
sS'finish_time'
p29
F1385743281.7471421
sS'start_time'
p30
F1385743281.5975511
sS'input-data'
p31
(g8
S'docs/docs.md'
p32
g10
S'78ddcc1a57f9eec0a40ee4fc4c12fe01-000'
p33
(dp34
g13
g14
sg15
Nsg16
g8
sg17
Nsg18
g32
sg20
Nsg21
Nsg22
g23
stp35
sS'state'
p36
S'running'
p37
sS'elapsed'
p38
F0.14959096908569336
ssS'doc:docs/example.py|idio|pycon|pyg'
p39
(dp40
g6
(lp41
(S'sectioned'
p42
S'docs/example.py|idio'
p43
S'.txt'
p44
S'aafcd3de84cb32b5c6120a07ff1a0585-001-idio'
p45
(dp46
g13
S'A document with named, ordered sections.\n\nSections can also contain arbitrary metadata.'
p47
sg15
Nsg16
S'jsonsectioned'
p48
sg17
Nsg18
S'docs/example.py.txt'
p49
sg20
Nsg21
Nsg22
(lp50
g42
astp51
a(g42
S'docs/example.py|idio|pycon'
p52
S'.pycon'
p53
S'aafcd3de84cb32b5c6120a07ff1a0585-002-idio-pycon'
p54
(dp55
g13
g47
sg15
Nsg16
g48
sg17
Nsg18
S'docs/example.pycon'
p56
sg20
Nsg21
Nsg22
g50
stp57
a(g42
S'docs/example.py|idio|pycon|pyg'
p58
S'.html'
p59
S'aafcd3de84cb32b5c6120a07ff1a0585-003-idio-pycon-pyg'
p60
(dp61
g13
g47
sg15
Nsg16
g48
sg17
Nsg18
S'docs/example.py.html'
p62
sg20
Nsg21
Nsg22
g50
stp63
asg25
(g42
g58
g59
g60
(dp64
g13
g47
sg15
Nsg16
g48
sg17
Nsg18
g62
sg20
Nsg21
Nsg22
g50
stp65
sg15
S'Example.Py'
p66
sg29
F1385743281.5943611
sg30
F1385743279.1024461
sg31
(g8
S'docs/example.py'
p67
S'.py'
p68
S'aafcd3de84cb32b5c6120a07ff1a0585-000'
p69
(dp70
g13
g14
sg15
Nsg16
g8
sg17
Nsg18
g67
sg20
Nsg21
Nsg22
g23
stp71
sg36
g37
sg38
F2.4919149875640869
sssS'filters_used'
p72
(lp73
S'idio'
p74
aS'pycon'
p75
aS'pyg'
p76
aS'jinja'
p77
ag74
ag75
ag76
ag77
ag74
ag75
ag76
ag77
asS'uuid'
p78
S'14e488ea-4670-4e9e-9396-2ffb451cd738'
p79
sS'doc_keys'
p80
(dp81
g11
S'doc:docs/docs.md|jinja'
p82
sg60
S'doc:docs/example.py|idio|pycon|pyg'
p83
ss.