(dp1
S'docs'
p2
(dp3
S'doc:docs/docs.md|jinja|markdown'
p4
(dp5
S'filters-data'
p6
(lp7
(S'generic'
p8
S'docs/docs.md|jinja'
p9
S'.md'
p10
S'0697048fe57f82375f80808729b99d6d-001-jinja'
p11
(dp12
S'help'
p13
S'Data type representing generic binary or text-based data in a single blob.'
p14
sS'title'
p15
NsS'storage-type'
p16
g8
sS'shortcut'
p17
NsS'canonical-name'
p18
S'docs/docs.md'
p19
sS'canonical-output'
p20
I01
sS'output-name'
p21
NsS'aliases'
p22
(lp23
g8
astp24
a(g8
S'docs/docs.md|jinja|markdown'
p25
S'.html'
p26
S'0697048fe57f82375f80808729b99d6d-002-jinja-markdown'
p27
(dp28
g13
g14
sg15
Nsg16
g8
sg17
Nsg18
S'docs/docs.html'
p29
sg20
I01
sg21
Nsg22
g23
stp30
asS'output-data'
p31
(g8
g25
g26
g27
(dp32
g13
g14
sg15
Nsg16
g8
sg17
Nsg18
g29
sg20
I01
sg21
Nsg22
g23
stp33
sg15
S'Docs'
p34
sS'finish_time'
p35
F1385742639.1626589
sS'start_time'
p36
F1385742639.04369
sS'input-data'
p37
(g8
S'docs/docs.md'
p38
g10
S'0697048fe57f82375f80808729b99d6d-000'
p39
(dp40
g13
g14
sg15
Nsg16
g8
sg17
Nsg18
g38
sg20
Nsg21
Nsg22
g23
stp41
sS'state'
p42
S'running'
p43
sS'elapsed'
p44
F0.11896896362304688
ssS'doc:docs/example.py|pycon'
p45
(dp46
g6
(lp47
(S'sectioned'
p48
S'docs/example.py|pycon'
p49
S'.pycon'
p50
S'bb2921a5de64f4fabefa12f158719825-001-pycon'
p51
(dp52
g13
S'A document with named, ordered sections.\n\nSections can also contain arbitrary metadata.'
p53
sg15
Nsg16
S'jsonsectioned'
p54
sg17
Nsg18
S'docs/example.pycon'
p55
sg20
Nsg21
Nsg22
(lp56
g48
astp57
asg31
(g48
g49
g50
g51
(dp58
g13
g53
sg15
Nsg16
g54
sg17
Nsg18
g55
sg20
Nsg21
Nsg22
g56
stp59
sg15
S'Example'
p60
sg35
I0
sg36
I0
sg37
(g8
S'docs/example.py'
p61
S'.py'
p62
S'bb2921a5de64f4fabefa12f158719825-000'
p63
(dp64
g13
g14
sg15
Nsg16
g8
sg17
Nsg18
g61
sg20
Nsg21
Nsg22
g23
stp65
sg42
S'cached'
p66
sg44
I0
sssS'filters_used'
p67
(lp68
S'pycon'
p69
aS'jinja'
p70
aS'markdown'
p71
ag69
ag70
ag71
ag70
ag71
asS'uuid'
p72
S'16e50870-b802-452d-afd0-b0b21ac6ec3a'
p73
sS'doc_keys'
p74
(dp75
g51
S'doc:docs/example.py|pycon'
p76
sg27
S'doc:docs/docs.md|jinja|markdown'
p77
ss.