(dp1
S'docs'
p2
(dp3
S'doc:docs/example.py|idio|pycon'
p4
(dp5
S'filters-data'
p6
(lp7
(S'sectioned'
p8
S'docs/example.py|idio'
p9
S'.txt'
p10
S'65791a69e1e078c778f65b794793a4ec-001-idio'
p11
(dp12
S'help'
p13
S'A document with named, ordered sections.\n\nSections can also contain arbitrary metadata.'
p14
sS'title'
p15
NsS'storage-type'
p16
S'jsonsectioned'
p17
sS'shortcut'
p18
NsS'canonical-name'
p19
S'docs/example.py.txt'
p20
sS'canonical-output'
p21
NsS'output-name'
p22
NsS'aliases'
p23
(lp24
g8
astp25
a(g8
S'docs/example.py|idio|pycon'
p26
S'.pycon'
p27
S'65791a69e1e078c778f65b794793a4ec-002-idio-pycon'
p28
(dp29
g13
g14
sg15
Nsg16
g17
sg18
Nsg19
S'docs/example.pycon'
p30
sg21
Nsg22
Nsg23
g24
stp31
asS'output-data'
p32
(g8
g26
g27
g28
(dp33
g13
g14
sg15
Nsg16
g17
sg18
Nsg19
g30
sg21
Nsg22
Nsg23
g24
stp34
sg15
S'Example'
p35
sS'finish_time'
p36
F1385743350.0275109
sS'start_time'
p37
F1385743346.651737
sS'input-data'
p38
(S'generic'
p39
S'docs/example.py'
p40
S'.py'
p41
S'65791a69e1e078c778f65b794793a4ec-000'
p42
(dp43
g13
S'Data type representing generic binary or text-based data in a single blob.'
p44
sg15
Nsg16
g39
sg18
Nsg19
g40
sg21
Nsg22
Nsg23
(lp45
g39
astp46
sS'state'
p47
S'running'
p48
sS'elapsed'
p49
F3.3757739067077637
ssS'doc:docs/docs.md|jinja'
p50
(dp51
g6
(lp52
(g39
S'docs/docs.md|jinja'
p53
S'.md'
p54
S'78ddcc1a57f9eec0a40ee4fc4c12fe01-001-jinja'
p55
(dp56
g13
g44
sg15
Nsg16
g39
sg18
Nsg19
S'docs/docs.md'
p57
sg21
I01
sg22
Nsg23
g45
stp58
asg32
(g39
g53
g54
g55
(dp59
g13
g44
sg15
Nsg16
g39
sg18
Nsg19
g57
sg21
I01
sg22
Nsg23
g45
stp60
sg15
S'Docs'
p61
sg36
F1385743350.1412499
sg37
F1385743350.030097
sg38
(g39
S'docs/docs.md'
p62
g54
S'78ddcc1a57f9eec0a40ee4fc4c12fe01-000'
p63
(dp64
g13
g44
sg15
Nsg16
g39
sg18
Nsg19
g62
sg21
Nsg22
Nsg23
g45
stp65
sg47
g48
sg49
F0.11115288734436035
sssS'filters_used'
p66
(lp67
S'idio'
p68
aS'pycon'
p69
aS'jinja'
p70
ag68
ag69
ag70
ag68
ag69
ag70
asS'uuid'
p71
S'2904b0e7-255d-4922-b1f3-4685a01e626d'
p72
sS'doc_keys'
p73
(dp74
g28
S'doc:docs/example.py|idio|pycon'
p75
sg55
S'doc:docs/docs.md|jinja'
p76
ss.