(dp1
S'docs'
p2
(dp3
S'doc:docs/examples/example.py|idio|pycon|pyg'
p4
(dp5
S'filters-data'
p6
(lp7
(S'sectioned'
p8
S'docs/examples/example.py|idio'
p9
S'.txt'
p10
S'03e130d953d22cf82666c14e98161a9f-001-idio'
p11
(dp12
S'help'
p13
S'A document with named, ordered sections.\n\nSections can also contain arbitrary metadata.'
p14
sS'title'
p15
NsS'storage-type'
p16
S'jsonsectioned'
p17
sS'shortcut'
p18
NsS'canonical-name'
p19
S'docs/examples/example.py.txt'
p20
sS'canonical-output'
p21
NsS'output-name'
p22
NsS'aliases'
p23
(lp24
g8
astp25
a(g8
S'docs/examples/example.py|idio|pycon'
p26
S'.pycon'
p27
S'03e130d953d22cf82666c14e98161a9f-002-idio-pycon'
p28
(dp29
g13
g14
sg15
Nsg16
g17
sg18
Nsg19
S'docs/examples/example.pycon'
p30
sg21
Nsg22
Nsg23
g24
stp31
a(g8
S'docs/examples/example.py|idio|pycon|pyg'
p32
S'.html'
p33
S'03e130d953d22cf82666c14e98161a9f-003-idio-pycon-pyg'
p34
(dp35
g13
g14
sg15
Nsg16
g17
sg18
Nsg19
S'docs/examples/example.py.html'
p36
sg21
Nsg22
Nsg23
g24
stp37
asS'output-data'
p38
(g8
g32
g33
g34
(dp39
g13
g14
sg15
Nsg16
g17
sg18
Nsg19
g36
sg21
Nsg22
Nsg23
g24
stp40
sg15
S'Example.Py'
p41
sS'finish_time'
p42
F1385743929.9545519
sS'start_time'
p43
F1385743926.551213
sS'input-data'
p44
(S'generic'
p45
S'docs/examples/example.py'
p46
S'.py'
p47
S'03e130d953d22cf82666c14e98161a9f-000'
p48
(dp49
g13
S'Data type representing generic binary or text-based data in a single blob.'
p50
sg15
Nsg16
g45
sg18
Nsg19
g46
sg21
Nsg22
Nsg23
(lp51
g45
astp52
sS'state'
p53
S'running'
p54
sS'elapsed'
p55
F3.4033389091491699
ssS'doc:docs/docs.md|jinja|markdown'
p56
(dp57
g6
(lp58
(g45
S'docs/docs.md|jinja'
p59
S'.md'
p60
S'0697048fe57f82375f80808729b99d6d-001-jinja'
p61
(dp62
g13
g50
sg15
Nsg16
g45
sg18
Nsg19
S'docs/docs.md'
p63
sg21
I01
sg22
Nsg23
g51
stp64
a(g45
S'docs/docs.md|jinja|markdown'
p65
S'.html'
p66
S'0697048fe57f82375f80808729b99d6d-002-jinja-markdown'
p67
(dp68
g13
g50
sg15
Nsg16
g45
sg18
Nsg19
S'docs/docs.html'
p69
sg21
I01
sg22
Nsg23
g51
stp70
asg38
(g45
g65
g66
g67
(dp71
g13
g50
sg15
Nsg16
g45
sg18
Nsg19
g69
sg21
I01
sg22
Nsg23
g51
stp72
sg15
S'Docs'
p73
sg42
F1385743930.0715511
sg43
F1385743929.9576859
sg44
(g45
S'docs/docs.md'
p74
g60
S'0697048fe57f82375f80808729b99d6d-000'
p75
(dp76
g13
g50
sg15
Nsg16
g45
sg18
Nsg19
g74
sg21
Nsg22
Nsg23
g51
stp77
sg53
g54
sg55
F0.11386513710021973
sssS'filters_used'
p78
(lp79
S'idio'
p80
aS'pycon'
p81
aS'pyg'
p82
aS'jinja'
p83
aS'markdown'
p84
ag80
ag81
ag82
ag83
ag84
ag80
ag81
ag82
ag83
ag84
asS'uuid'
p85
S'2f437631-0a2a-46d2-95aa-b1f3435658b1'
p86
sS'doc_keys'
p87
(dp88
g34
S'doc:docs/examples/example.py|idio|pycon|pyg'
p89
sg67
S'doc:docs/docs.md|jinja|markdown'
p90
ss.