(dp1
S'docs'
p2
(dp3
S'doc:docs/docs.md|jinja|markdown|easyhtml'
p4
(dp5
S'filters-data'
p6
(lp7
(S'generic'
p8
S'docs/docs.md|jinja'
p9
S'.md'
p10
S'410b9692c31a0e1050217d21e590fa6c-001-jinja'
p11
(dp12
S'help'
p13
S'Data type representing generic binary or text-based data in a single blob.'
p14
sS'title'
p15
NsS'storage-type'
p16
g8
sS'shortcut'
p17
NsS'canonical-name'
p18
S'docs/docs.md'
p19
sS'canonical-output'
p20
I01
sS'output-name'
p21
NsS'aliases'
p22
(lp23
g8
astp24
a(g8
S'docs/docs.md|jinja|markdown'
p25
S'.html'
p26
S'410b9692c31a0e1050217d21e590fa6c-002-jinja-markdown'
p27
(dp28
g13
g14
sg15
Nsg16
g8
sg17
Nsg18
S'docs/docs.html'
p29
sg20
I01
sg21
Nsg22
g23
stp30
a(g8
S'docs/docs.md|jinja|markdown|easyhtml'
p31
S'.html'
p32
S'410b9692c31a0e1050217d21e590fa6c-003-jinja-markdown-easyhtml'
p33
(dp34
g13
g14
sg15
Nsg16
g8
sg17
Nsg18
S'docs/docs.html'
p35
sg20
I01
sg21
Nsg22
g23
stp36
asS'output-data'
p37
(g8
g31
g32
g33
(dp38
g13
g14
sg15
Nsg16
g8
sg17
Nsg18
g35
sg20
I01
sg21
Nsg22
g23
stp39
sg15
S'Docs'
p40
sS'finish_time'
p41
F1385746568.339366
sS'start_time'
p42
F1385746568.2184579
sS'input-data'
p43
(g8
S'docs/docs.md'
p44
g10
S'410b9692c31a0e1050217d21e590fa6c-000'
p45
(dp46
g13
g14
sg15
Nsg16
g8
sg17
Nsg18
g44
sg20
Nsg21
Nsg22
g23
stp47
sS'state'
p48
S'running'
p49
sS'elapsed'
p50
F0.12090802192687988
ssS'doc:docs/examples/example.py|idio|pycon|pyg'
p51
(dp52
g6
(lp53
(S'sectioned'
p54
S'docs/examples/example.py|idio'
p55
S'.txt'
p56
S'03e130d953d22cf82666c14e98161a9f-001-idio'
p57
(dp58
g13
S'A document with named, ordered sections.\n\nSections can also contain arbitrary metadata.'
p59
sg15
Nsg16
S'jsonsectioned'
p60
sg17
Nsg18
S'docs/examples/example.py.txt'
p61
sg20
Nsg21
Nsg22
(lp62
g54
astp63
a(g54
S'docs/examples/example.py|idio|pycon'
p64
S'.pycon'
p65
S'03e130d953d22cf82666c14e98161a9f-002-idio-pycon'
p66
(dp67
g13
g59
sg15
Nsg16
g60
sg17
Nsg18
S'docs/examples/example.pycon'
p68
sg20
Nsg21
Nsg22
g62
stp69
a(g54
S'docs/examples/example.py|idio|pycon|pyg'
p70
S'.html'
p71
S'03e130d953d22cf82666c14e98161a9f-003-idio-pycon-pyg'
p72
(dp73
g13
g59
sg15
Nsg16
g60
sg17
Nsg18
S'docs/examples/example.py.html'
p74
sg20
Nsg21
Nsg22
g62
stp75
asg37
(g54
g70
g71
g72
(dp76
g13
g59
sg15
Nsg16
g60
sg17
Nsg18
g74
sg20
Nsg21
Nsg22
g62
stp77
sg15
S'Example.Py'
p78
sg41
F1385746568.2164299
sg42
F1385746564.5839789
sg43
(g8
S'docs/examples/example.py'
p79
S'.py'
p80
S'03e130d953d22cf82666c14e98161a9f-000'
p81
(dp82
g13
g14
sg15
Nsg16
g8
sg17
Nsg18
g79
sg20
Nsg21
Nsg22
g23
stp83
sg48
g49
sg50
F3.632451057434082
sssS'filters_used'
p84
(lp85
S'idio'
p86
aS'pycon'
p87
aS'pyg'
p88
aS'jinja'
p89
aS'markdown'
p90
aS'easyhtml'
p91
ag86
ag87
ag88
ag89
ag90
ag91
ag86
ag87
ag88
ag89
ag90
ag91
asS'uuid'
p92
S'56639999-3e01-44f7-835d-4fc0e80d9af0'
p93
sS'doc_keys'
p94
(dp95
g72
S'doc:docs/examples/example.py|idio|pycon|pyg'
p96
sg33
S'doc:docs/docs.md|jinja|markdown|easyhtml'
p97
ss.