(dp1
S'docs'
p2
(dp3
S'doc:docs/docs.md|jinja|markdown'
p4
(dp5
S'filters-data'
p6
(lp7
(S'generic'
p8
S'docs/docs.md|jinja'
p9
S'.md'
p10
S'0697048fe57f82375f80808729b99d6d-001-jinja'
p11
(dp12
S'help'
p13
S'Data type representing generic binary or text-based data in a single blob.'
p14
sS'title'
p15
NsS'storage-type'
p16
g8
sS'shortcut'
p17
NsS'canonical-name'
p18
S'docs/docs.md'
p19
sS'canonical-output'
p20
I01
sS'output-name'
p21
NsS'aliases'
p22
(lp23
g8
astp24
a(g8
S'docs/docs.md|jinja|markdown'
p25
S'.html'
p26
S'0697048fe57f82375f80808729b99d6d-002-jinja-markdown'
p27
(dp28
g13
g14
sg15
Nsg16
g8
sg17
Nsg18
S'docs/docs.html'
p29
sg20
I01
sg21
Nsg22
g23
stp30
asS'output-data'
p31
(g8
g25
g26
g27
(dp32
g13
g14
sg15
Nsg16
g8
sg17
Nsg18
g29
sg20
I01
sg21
Nsg22
g23
stp33
sg15
S'Docs'
p34
sS'finish_time'
p35
F1385742487.7444439
sS'start_time'
p36
F1385742487.5847559
sS'input-data'
p37
(g8
S'docs/docs.md'
p38
g10
S'0697048fe57f82375f80808729b99d6d-000'
p39
(dp40
g13
g14
sg15
Nsg16
g8
sg17
Nsg18
g38
sg20
Nsg21
Nsg22
g23
stp41
sS'state'
p42
S'running'
p43
sS'elapsed'
p44
F0.15968799591064453
ssS'doc:docs/example.py'
p45
(dp46
g6
(lp47
sg31
(g8
S'docs/example.py'
p48
S'.py'
p49
S'ceda5ecb6c4e459873a07fa65f6979e7-000'
p50
(dp51
g13
g14
sg15
Nsg16
g8
sg17
Nsg18
g48
sg20
I01
sg21
Nsg22
g23
stp52
sg15
S'Example'
p53
sg35
I0
sg36
I0
sg37
(g8
g48
g49
g50
(dp54
g13
g14
sg15
Nsg16
g8
sg17
Nsg18
g48
sg20
I01
sg21
Nsg22
g23
stp55
sg42
S'cached'
p56
sg44
I0
sssS'filters_used'
p57
(lp58
S'jinja'
p59
aS'markdown'
p60
ag59
ag60
ag59
ag60
asS'uuid'
p61
S'aeb59c1a-4190-4125-a79a-c870101a16fb'
p62
sS'doc_keys'
p63
(dp64
g50
S'doc:docs/example.py'
p65
sg27
S'doc:docs/docs.md|jinja|markdown'
p66
ss.