(dp1
S'docs'
p2
(dp3
S'doc:docs/docs.md|jinja'
p4
(dp5
S'filters-data'
p6
(lp7
(S'generic'
p8
S'docs/docs.md|jinja'
p9
S'.md'
p10
S'78ddcc1a57f9eec0a40ee4fc4c12fe01-001-jinja'
p11
(dp12
S'help'
p13
S'Data type representing generic binary or text-based data in a single blob.'
p14
sS'title'
p15
NsS'storage-type'
p16
g8
sS'shortcut'
p17
NsS'canonical-name'
p18
S'docs/docs.md'
p19
sS'canonical-output'
p20
I01
sS'output-name'
p21
NsS'aliases'
p22
(lp23
g8
astp24
asS'output-data'
p25
(g8
g9
g10
g11
(dp26
g13
g14
sg15
Nsg16
g8
sg17
Nsg18
g19
sg20
I01
sg21
Nsg22
g23
stp27
sg15
S'Docs'
p28
sS'finish_time'
p29
F1385742812.724309
sS'start_time'
p30
F1385742812.590102
sS'input-data'
p31
(g8
S'docs/docs.md'
p32
g10
S'78ddcc1a57f9eec0a40ee4fc4c12fe01-000'
p33
(dp34
g13
g14
sg15
Nsg16
g8
sg17
Nsg18
g32
sg20
Nsg21
Nsg22
g23
stp35
sS'state'
p36
S'running'
p37
sS'elapsed'
p38
F0.13420701026916504
ssS'doc:docs/example.py|pycon'
p39
(dp40
g6
(lp41
(S'sectioned'
p42
S'docs/example.py|pycon'
p43
S'.pycon'
p44
S'bb2921a5de64f4fabefa12f158719825-001-pycon'
p45
(dp46
g13
S'A document with named, ordered sections.\n\nSections can also contain arbitrary metadata.'
p47
sg15
Nsg16
S'jsonsectioned'
p48
sg17
Nsg18
S'docs/example.pycon'
p49
sg20
Nsg21
Nsg22
(lp50
g42
astp51
asg25
(g42
g43
g44
g45
(dp52
g13
g47
sg15
Nsg16
g48
sg17
Nsg18
g49
sg20
Nsg21
Nsg22
g50
stp53
sg15
S'Example'
p54
sg29
I0
sg30
I0
sg31
(g8
S'docs/example.py'
p55
S'.py'
p56
S'bb2921a5de64f4fabefa12f158719825-000'
p57
(dp58
g13
g14
sg15
Nsg16
g8
sg17
Nsg18
g55
sg20
Nsg21
Nsg22
g23
stp59
sg36
S'cached'
p60
sg38
I0
sssS'filters_used'
p61
(lp62
S'pycon'
p63
aS'jinja'
p64
ag63
ag64
ag64
asS'uuid'
p65
S'ff4ca620-c7a7-4486-b9c5-46dcaa05f4a5'
p66
sS'doc_keys'
p67
(dp68
g11
S'doc:docs/docs.md|jinja'
p69
sg45
S'doc:docs/example.py|pycon'
p70
ss.